; Function Attrs: nounwind uwtable
define void @zend_llist_apply_with_argument(ptr nocapture noundef readonly %0, ptr nocapture noundef readonly %1, ptr noundef %2) local_unnamed_addr #1 {
  %.06 = load ptr, ptr %0, align 8
  %.not7 = icmp eq ptr %.06, null
  br i1 %.not7, label %._crit_edge, label %.lr.ph

.lr.ph:                                           ; preds = %3, %.lr.ph
  %.08 = phi ptr [ %.0, %.lr.ph ], [ %.06, %3 ]
  %4 = getelementptr inbounds i8, ptr %.08, i64 16
  tail call void %1(ptr noundef nonnull %4, ptr noundef %2) #13
  %.0 = load ptr, ptr %.08, align 8
  %.not = icmp eq ptr %.0, null
  br i1 %.not, label %._crit_edge, label %.lr.ph

._crit_edge:                                      ; preds = %.lr.ph, %3
  ret void
}